; Function Attrs: mustprogress nofree norecurse nosync nounwind memory(argmem: readwrite) uwtable
define dso_local void @_ZN5clang33ImplicitConceptSpecializationDecl20setTemplateArgumentsEN4llvm8ArrayRefINS_16TemplateArgumentEEE(ptr noundef nonnull writeonly align 8 captures(none) dereferenceable(40) %0, ptr readonly %1, i64 %2) local_unnamed_addr #12 align 2 {
  %4 = getelementptr inbounds %"class.clang::TemplateArgument", ptr %1, i64 %2
  %.not9.i.i.i = icmp eq i64 %2, 0
  br i1 %.not9.i.i.i, label %_ZSt18uninitialized_copyIPKN5clang16TemplateArgumentEPS1_ET0_T_S6_S5_.exit, label %.lr.ph.i.i.i.preheader

.lr.ph.i.i.i.preheader:                           ; preds = %3
  %5 = getelementptr inbounds nuw i8, ptr %0, i64 40
  br label %.lr.ph.i.i.i

.lr.ph.i.i.i:                                     ; preds = %.lr.ph.i.i.i.preheader, %.lr.ph.i.i.i
  %.011.i.i.i = phi ptr [ %7, %.lr.ph.i.i.i ], [ %5, %.lr.ph.i.i.i.preheader ]
  %.0810.i.i.i = phi ptr [ %6, %.lr.ph.i.i.i ], [ %1, %.lr.ph.i.i.i.preheader ]
  tail call void @llvm.memcpy.p0.p0.i64(ptr noundef nonnull align 8 dereferenceable(24) %.011.i.i.i, ptr noundef nonnull align 8 dereferenceable(24) %.0810.i.i.i, i64 24, i1 false)
  %6 = getelementptr inbounds nuw i8, ptr %.0810.i.i.i, i64 24
  %7 = getelementptr inbounds nuw i8, ptr %.011.i.i.i, i64 24
  %.not.i.i.i = icmp eq ptr %6, %4
  br i1 %.not.i.i.i, label %_ZSt18uninitialized_copyIPKN5clang16TemplateArgumentEPS1_ET0_T_S6_S5_.exit, label %.lr.ph.i.i.i, !llvm.loop !12

_ZSt18uninitialized_copyIPKN5clang16TemplateArgumentEPS1_ET0_T_S6_S5_.exit: ; preds = %.lr.ph.i.i.i, %3
  ret void
}